target datalayout = "e-m:e-p270:32:32-p271:32:32-p272:64:64-i64:64-i128:128-f80:128-n8:16:32:64-S128"
target triple = "x86_64-pc-linux-gnu"

%struct.TypeCacheEntry = type { i32, i32, i16, i8, i8, i8, i8, i32, i32, i32, i32, i32, i32, i32, i32, i32, i32, i32, i32, i32, i32, %struct.FmgrInfo, %struct.FmgrInfo, %struct.FmgrInfo, %struct.FmgrInfo, ptr, i64, ptr, i32, i32, %struct.FmgrInfo, %struct.FmgrInfo, %struct.FmgrInfo, ptr, i32, i32, ptr, i32, ptr, ptr }
%struct.FmgrInfo = type { ptr, i32, i16, i8, i8, i8, ptr, ptr, ptr }

@firstDomainTypeEntry = internal global ptr null, align 8

; Function Attrs: nounwind uwtable
define internal void @TypeCacheConstrCallback(i64 noundef %0, i32 noundef %1, i32 noundef %2) #0 {
  %4 = alloca i64, align 8
  %5 = alloca i32, align 4
  %6 = alloca i32, align 4
  %7 = alloca ptr, align 8
  store i64 %0, ptr %4, align 8
  store i32 %1, ptr %5, align 4
  store i32 %2, ptr %6, align 4
  call void @llvm.lifetime.start.p0(i64 8, ptr %7) #11
  %8 = load ptr, ptr @firstDomainTypeEntry, align 8
  store ptr %8, ptr %7, align 8
  br label %9

9:                                                ; preds = %17, %3
  %10 = load ptr, ptr %7, align 8
  %11 = icmp ne ptr %10, null
  br i1 %11, label %12, label %21

12:                                               ; preds = %9
  %13 = load ptr, ptr %7, align 8
  %14 = getelementptr inbounds nuw %struct.TypeCacheEntry, ptr %13, i32 0, i32 37
  %15 = load i32, ptr %14, align 8
  %16 = and i32 %15, -524289
  store i32 %16, ptr %14, align 8
  br label %17

17:                                               ; preds = %12
  %18 = load ptr, ptr %7, align 8
  %19 = getelementptr inbounds nuw %struct.TypeCacheEntry, ptr %18, i32 0, i32 39
  %20 = load ptr, ptr %19, align 8
  store ptr %20, ptr %7, align 8
  br label %9, !llvm.loop !12

21:                                               ; preds = %9
  call void @llvm.lifetime.end.p0(i64 8, ptr %7) #11
  ret void
}