; Function Attrs: nofree norecurse nosync nounwind memory(readwrite, inaccessiblemem: none) uwtable
define internal void @TypeCacheConstrCallback(i64 %0, i32 %1, i32 %2) #3 {
  %.03 = load ptr, ptr @firstDomainTypeEntry, align 8
  %.not4 = icmp eq ptr %.03, null
  br i1 %.not4, label %._crit_edge, label %.lr.ph

.lr.ph:                                           ; preds = %3, %.lr.ph
  %.05 = phi ptr [ %.0, %.lr.ph ], [ %.03, %3 ]
  %4 = getelementptr inbounds nuw i8, ptr %.05, i64 464
  %5 = load i32, ptr %4, align 8
  %6 = and i32 %5, -524289
  store i32 %6, ptr %4, align 8
  %7 = getelementptr inbounds nuw i8, ptr %.05, i64 480
  %.0 = load ptr, ptr %7, align 8
  %.not = icmp eq ptr %.0, null
  br i1 %.not, label %._crit_edge, label %.lr.ph, !llvm.loop !11

._crit_edge:                                      ; preds = %.lr.ph, %3
  ret void
}